target datalayout = "e-m:e-p270:32:32-p271:32:32-p272:64:64-i64:64-i128:128-f80:128-n8:16:32:64-S128"
target triple = "x86_64-pc-linux-gnu"

%"class.std::__cxx11::basic_string" = type { %"struct.std::__cxx11::basic_string<char>::_Alloc_hider", i64, %union.anon }
%"struct.std::__cxx11::basic_string<char>::_Alloc_hider" = type { ptr }
%union.anon = type { i64, [8 x i8] }
%"class.arrow::Status" = type { ptr }
%"struct.std::_Vector_base" = type { %"struct.std::_Vector_base<long, std::allocator<long>>::_Vector_impl" }
%"struct.std::_Vector_base<long, std::allocator<long>>::_Vector_impl" = type { %"struct.std::_Vector_base<long, std::allocator<long>>::_Vector_impl_data" }
%"struct.std::_Vector_base<long, std::allocator<long>>::_Vector_impl_data" = type { ptr, ptr, ptr }
%"class.std::shared_ptr" = type { %"class.std::__shared_ptr" }
%"class.std::__shared_ptr" = type { ptr, %"class.std::__shared_count" }
%"class.std::__shared_count" = type { ptr }
%"class.std::shared_ptr.7" = type { %"class.std::__shared_ptr.8" }
%"class.std::__shared_ptr.8" = type { ptr, %"class.std::__shared_count" }
%"class.std::vector" = type { %"struct.std::_Vector_base" }
%"class.std::vector.10" = type { %"struct.std::_Vector_base.11" }
%"struct.std::_Vector_base.11" = type { %"struct.std::_Vector_base<std::__cxx11::basic_string<char>, std::allocator<std::__cxx11::basic_string<char>>>::_Vector_impl" }
%"struct.std::_Vector_base<std::__cxx11::basic_string<char>, std::allocator<std::__cxx11::basic_string<char>>>::_Vector_impl" = type { %"struct.std::_Vector_base<std::__cxx11::basic_string<char>, std::allocator<std::__cxx11::basic_string<char>>>::_Vector_impl_data" }
%"struct.std::_Vector_base<std::__cxx11::basic_string<char>, std::allocator<std::__cxx11::basic_string<char>>>::_Vector_impl_data" = type { ptr, ptr, ptr }
%"struct.arrow::Status::State" = type { i8, i8, %"class.std::__cxx11::basic_string", %"class.std::shared_ptr.55" }
%"class.std::shared_ptr.55" = type { %"class.std::__shared_ptr.56" }
%"class.std::__shared_ptr.56" = type { ptr, %"class.std::__shared_count" }
%"class.arrow::SparseTensor" = type { ptr, %"class.std::shared_ptr", %"class.std::shared_ptr.7", %"class.std::vector", %"class.std::shared_ptr.46", %"class.std::vector.10" }
%"class.std::shared_ptr.46" = type { %"class.std::__shared_ptr.47" }
%"class.std::__shared_ptr.47" = type { ptr, %"class.std::__shared_count" }
%"class.arrow::Result.49" = type { %"class.arrow::Status", %"class.arrow::internal::AlignedStorage.52" }
%"class.arrow::internal::AlignedStorage.52" = type { [16 x i8] }
%"class.arrow::SparseIndex" = type <{ ptr, i32, [4 x i8] }>

@.str.23 = private unnamed_addr constant [36 x i8] c"Unsupported SparseIndex format type\00", align 1

; Function Attrs: mustprogress nounwind uwtable
define linkonce_odr noundef ptr @_ZNKSt12__shared_ptrIN5arrow11SparseIndexELN9__gnu_cxx12_Lock_policyE2EE3getEv(ptr noundef nonnull align 8 dereferenceable(16) %0) #2 comdat align 2 {
  %2 = alloca ptr, align 8
  store ptr %0, ptr %2, align 8, !tbaa !158
  %3 = load ptr, ptr %2, align 8
  %4 = getelementptr inbounds nuw %"class.std::__shared_ptr.47", ptr %3, i32 0, i32 0
  %5 = load ptr, ptr %4, align 8, !tbaa !272
  ret ptr %5
}

; Function Attrs: mustprogress nounwind uwtable
define linkonce_odr noundef ptr @_ZNKSt19__shared_ptr_accessIN5arrow11SparseIndexELN9__gnu_cxx12_Lock_policyE2ELb0ELb0EE6_M_getEv(ptr noundef nonnull align 1 dereferenceable(1) %0) #2 comdat align 2 {
  %2 = alloca ptr, align 8
  store ptr %0, ptr %2, align 8, !tbaa !274
  %3 = load ptr, ptr %2, align 8
  %4 = call noundef ptr @_ZNKSt12__shared_ptrIN5arrow11SparseIndexELN9__gnu_cxx12_Lock_policyE2EE3getEv(ptr noundef nonnull align 8 dereferenceable(16) %3) #8
  ret ptr %4
}

; Function Attrs: mustprogress nounwind uwtable
define linkonce_odr void @_ZN5arrow4util18EqualityComparableINS_6StatusEED2Ev(ptr noundef nonnull align 1 dereferenceable(1) %0) unnamed_addr #2 comdat align 2 {
  %2 = alloca ptr, align 8
  store ptr %0, ptr %2, align 8, !tbaa !200
  ret void
}

; Function Attrs: mustprogress nounwind uwtable
define linkonce_odr void @_ZN5arrow4util19ToStringOstreamableINS_6StatusEED2Ev(ptr noundef nonnull align 1 dereferenceable(1) %0) unnamed_addr #2 comdat align 2 {
  %2 = alloca ptr, align 8
  store ptr %0, ptr %2, align 8, !tbaa !198
  ret void
}

; Function Attrs: mustprogress nounwind uwtable
define linkonce_odr noundef i32 @_ZNK5arrow11SparseIndex9format_idEv(ptr noundef nonnull align 8 dereferenceable(12) %0) #2 comdat align 2 {
  %2 = alloca ptr, align 8
  store ptr %0, ptr %2, align 8, !tbaa !3
  %3 = load ptr, ptr %2, align 8
  %4 = getelementptr inbounds nuw %"class.arrow::SparseIndex", ptr %3, i32 0, i32 1
  %5 = load i32, ptr %4, align 8, !tbaa !276
  ret i32 %5
}

; Function Attrs: mustprogress nounwind uwtable
define linkonce_odr noundef ptr @_ZNKSt19__shared_ptr_accessIN5arrow11SparseIndexELN9__gnu_cxx12_Lock_policyE2ELb0ELb0EEptEv(ptr noundef nonnull align 1 dereferenceable(1) %0) #2 comdat align 2 {
  %2 = alloca ptr, align 8
  store ptr %0, ptr %2, align 8, !tbaa !274
  %3 = load ptr, ptr %2, align 8
  %4 = call noundef ptr @_ZNKSt19__shared_ptr_accessIN5arrow11SparseIndexELN9__gnu_cxx12_Lock_policyE2ELb0ELb0EE6_M_getEv(ptr noundef nonnull align 1 dereferenceable(1) %3) #8
  ret ptr %4
}

; Function Attrs: mustprogress nounwind uwtable
define linkonce_odr void @_ZN5arrow6StatusD2Ev(ptr noundef nonnull align 8 dereferenceable(8) %0) unnamed_addr #2 comdat align 2 {
  %2 = alloca ptr, align 8
  store ptr %0, ptr %2, align 8, !tbaa !54
  %3 = load ptr, ptr %2, align 8
  %4 = getelementptr inbounds nuw %"class.arrow::Status", ptr %3, i32 0, i32 0
  %5 = load ptr, ptr %4, align 8, !tbaa !58
  %6 = icmp ne ptr %5, null
  %7 = xor i1 %6, true
  %8 = xor i1 %7, true
  %9 = zext i1 %8 to i64
  %10 = call i64 @llvm.expect.i64(i64 %9, i64 0)
  %11 = icmp ne i64 %10, 0
  br i1 %11, label %12, label %20

12:                                               ; preds = %1
  %13 = getelementptr inbounds nuw %"class.arrow::Status", ptr %3, i32 0, i32 0
  %14 = load ptr, ptr %13, align 8, !tbaa !58
  %15 = getelementptr inbounds nuw %"struct.arrow::Status::State", ptr %14, i32 0, i32 1
  %16 = load i8, ptr %15, align 1, !tbaa !61, !range !70, !noundef !71
  %17 = trunc i8 %16 to i1
  br i1 %17, label %19, label %18

18:                                               ; preds = %12
  call void @_ZN5arrow6Status11DeleteStateEv(ptr noundef nonnull align 8 dereferenceable(8) %3) #8
  br label %19

19:                                               ; preds = %18, %12
  br label %20

20:                                               ; preds = %19, %1
  call void @_ZN5arrow4util19ToStringOstreamableINS_6StatusEED2Ev(ptr noundef nonnull align 1 dereferenceable(1) %3) #8
  call void @_ZN5arrow4util18EqualityComparableINS_6StatusEED2Ev(ptr noundef nonnull align 1 dereferenceable(1) %3) #8
  ret void
}

; Function Attrs: mustprogress uwtable
define linkonce_odr void @_ZN5arrow6Status14NotImplementedIJRA36_KcEEES0_DpOT_(ptr dead_on_unwind noalias writable sret(%"class.arrow::Status") align 8 %0, ptr noundef nonnull align 1 dereferenceable(36) %1) #0 comdat align 2 {
  %3 = alloca ptr, align 8
  %4 = alloca ptr, align 8
  store ptr %0, ptr %3, align 8
  store ptr %1, ptr %4, align 8, !tbaa !13
  %5 = load ptr, ptr %4, align 8, !tbaa !13
  call void @_ZN5arrow6Status8FromArgsIJRA36_KcEEES0_NS_10StatusCodeEDpOT_(ptr dead_on_unwind writable sret(%"class.arrow::Status") align 8 %0, i8 noundef signext 10, ptr noundef nonnull align 1 dereferenceable(36) %5)
  ret void
}

; Function Attrs: inlinehint mustprogress nounwind uwtable
define linkonce_odr noundef ptr @_ZN5arrow8internal12checked_castIPKNS_16SparseTensorImplINS_14SparseCSFIndexEEEPKNS_12SparseTensorEEET_OT0_(ptr noundef nonnull align 8 dereferenceable(8) %0) #5 comdat {
  %2 = alloca ptr, align 8
  store ptr %0, ptr %2, align 8, !tbaa !168
  %3 = load ptr, ptr %2, align 8, !tbaa !168
  %4 = load ptr, ptr %3, align 8, !tbaa !151
  ret ptr %4
}

; Function Attrs: inlinehint mustprogress nounwind uwtable
define linkonce_odr noundef ptr @_ZN5arrow8internal12checked_castIPKNS_16SparseTensorImplINS_14SparseCSCIndexEEEPKNS_12SparseTensorEEET_OT0_(ptr noundef nonnull align 8 dereferenceable(8) %0) #5 comdat {
  %2 = alloca ptr, align 8
  store ptr %0, ptr %2, align 8, !tbaa !168
  %3 = load ptr, ptr %2, align 8, !tbaa !168
  %4 = load ptr, ptr %3, align 8, !tbaa !151
  ret ptr %4
}

; Function Attrs: inlinehint mustprogress nounwind uwtable
define linkonce_odr noundef ptr @_ZN5arrow8internal12checked_castIPKNS_16SparseTensorImplINS_14SparseCSRIndexEEEPKNS_12SparseTensorEEET_OT0_(ptr noundef nonnull align 8 dereferenceable(8) %0) #5 comdat {
  %2 = alloca ptr, align 8
  store ptr %0, ptr %2, align 8, !tbaa !168
  %3 = load ptr, ptr %2, align 8, !tbaa !168
  %4 = load ptr, ptr %3, align 8, !tbaa !151
  ret ptr %4
}

; Function Attrs: inlinehint mustprogress nounwind uwtable
define linkonce_odr noundef ptr @_ZN5arrow8internal12checked_castIPKNS_16SparseTensorImplINS_14SparseCOOIndexEEEPKNS_12SparseTensorEEET_OT0_(ptr noundef nonnull align 8 dereferenceable(8) %0) #5 comdat {
  %2 = alloca ptr, align 8
  store ptr %0, ptr %2, align 8, !tbaa !168
  %3 = load ptr, ptr %2, align 8, !tbaa !168
  %4 = load ptr, ptr %3, align 8, !tbaa !151
  ret ptr %4
}

; Function Attrs: mustprogress uwtable
define linkonce_odr noundef i32 @_ZNK5arrow12SparseTensor9format_idEv(ptr noundef nonnull align 8 dereferenceable(104) %0) #0 comdat align 2 {
  %2 = alloca ptr, align 8
  store ptr %0, ptr %2, align 8, !tbaa !151
  %3 = load ptr, ptr %2, align 8
  %4 = getelementptr inbounds nuw %"class.arrow::SparseTensor", ptr %3, i32 0, i32 4
  %5 = call noundef ptr @_ZNKSt19__shared_ptr_accessIN5arrow11SparseIndexELN9__gnu_cxx12_Lock_policyE2ELb0ELb0EEptEv(ptr noundef nonnull align 1 dereferenceable(1) %4) #8
  %6 = call noundef i32 @_ZNK5arrow11SparseIndex9format_idEv(ptr noundef nonnull align 8 dereferenceable(12) %5)
  ret i32 %6
}

; Function Attrs: mustprogress uwtable
define void @_ZNK5arrow12SparseTensor8ToTensorEPNS_10MemoryPoolE(ptr dead_on_unwind noalias writable sret(%"class.arrow::Result.49") align 8 %0, ptr noundef nonnull align 8 dereferenceable(104) %1, ptr noundef %2) #0 align 2 {
  %4 = alloca ptr, align 8
  %5 = alloca ptr, align 8
  %6 = alloca ptr, align 8
  %7 = alloca ptr, align 8
  %8 = alloca ptr, align 8
  %9 = alloca ptr, align 8
  %10 = alloca ptr, align 8
  %11 = alloca %"class.arrow::Status", align 8
  store ptr %0, ptr %4, align 8
  store ptr %1, ptr %5, align 8, !tbaa !151
  store ptr %2, ptr %6, align 8, !tbaa !44
  %12 = load ptr, ptr %5, align 8
  %13 = call noundef i32 @_ZNK5arrow12SparseTensor9format_idEv(ptr noundef nonnull align 8 dereferenceable(104) %12)
  switch i32 %13, label %26 [
    i32 0, label %14
    i32 1, label %17
    i32 2, label %20
    i32 3, label %23
  ]

14:                                               ; preds = %3
  %15 = load ptr, ptr %6, align 8, !tbaa !44
  call void @llvm.lifetime.start.p0(i64 8, ptr %7) #8
  store ptr %12, ptr %7, align 8, !tbaa !151
  %16 = call noundef ptr @_ZN5arrow8internal12checked_castIPKNS_16SparseTensorImplINS_14SparseCOOIndexEEEPKNS_12SparseTensorEEET_OT0_(ptr noundef nonnull align 8 dereferenceable(8) %7)
  call void @_ZN5arrow8internal29MakeTensorFromSparseCOOTensorEPNS_10MemoryPoolEPKNS_16SparseTensorImplINS_14SparseCOOIndexEEE(ptr dead_on_unwind writable sret(%"class.arrow::Result.49") align 8 %0, ptr noundef %15, ptr noundef %16)
  call void @llvm.lifetime.end.p0(i64 8, ptr %7) #8
  br label %27

17:                                               ; preds = %3
  %18 = load ptr, ptr %6, align 8, !tbaa !44
  call void @llvm.lifetime.start.p0(i64 8, ptr %8) #8
  store ptr %12, ptr %8, align 8, !tbaa !151
  %19 = call noundef ptr @_ZN5arrow8internal12checked_castIPKNS_16SparseTensorImplINS_14SparseCSRIndexEEEPKNS_12SparseTensorEEET_OT0_(ptr noundef nonnull align 8 dereferenceable(8) %8)
  call void @_ZN5arrow8internal29MakeTensorFromSparseCSRMatrixEPNS_10MemoryPoolEPKNS_16SparseTensorImplINS_14SparseCSRIndexEEE(ptr dead_on_unwind writable sret(%"class.arrow::Result.49") align 8 %0, ptr noundef %18, ptr noundef %19)
  call void @llvm.lifetime.end.p0(i64 8, ptr %8) #8
  br label %27

20:                                               ; preds = %3
  %21 = load ptr, ptr %6, align 8, !tbaa !44
  call void @llvm.lifetime.start.p0(i64 8, ptr %9) #8
  store ptr %12, ptr %9, align 8, !tbaa !151
  %22 = call noundef ptr @_ZN5arrow8internal12checked_castIPKNS_16SparseTensorImplINS_14SparseCSCIndexEEEPKNS_12SparseTensorEEET_OT0_(ptr noundef nonnull align 8 dereferenceable(8) %9)
  call void @_ZN5arrow8internal29MakeTensorFromSparseCSCMatrixEPNS_10MemoryPoolEPKNS_16SparseTensorImplINS_14SparseCSCIndexEEE(ptr dead_on_unwind writable sret(%"class.arrow::Result.49") align 8 %0, ptr noundef %21, ptr noundef %22)
  call void @llvm.lifetime.end.p0(i64 8, ptr %9) #8
  br label %27

23:                                               ; preds = %3
  %24 = load ptr, ptr %6, align 8, !tbaa !44
  call void @llvm.lifetime.start.p0(i64 8, ptr %10) #8
  store ptr %12, ptr %10, align 8, !tbaa !151
  %25 = call noundef ptr @_ZN5arrow8internal12checked_castIPKNS_16SparseTensorImplINS_14SparseCSFIndexEEEPKNS_12SparseTensorEEET_OT0_(ptr noundef nonnull align 8 dereferenceable(8) %10)
  call void @_ZN5arrow8internal29MakeTensorFromSparseCSFTensorEPNS_10MemoryPoolEPKNS_16SparseTensorImplINS_14SparseCSFIndexEEE(ptr dead_on_unwind writable sret(%"class.arrow::Result.49") align 8 %0, ptr noundef %24, ptr noundef %25)
  call void @llvm.lifetime.end.p0(i64 8, ptr %10) #8
  br label %27

26:                                               ; preds = %3
  call void @llvm.lifetime.start.p0(i64 8, ptr %11) #8
  call void @_ZN5arrow6Status14NotImplementedIJRA36_KcEEES0_DpOT_(ptr dead_on_unwind writable sret(%"class.arrow::Status") align 8 %11, ptr noundef nonnull align 1 dereferenceable(36) @.str.23)
  call void @_ZN5arrow6ResultISt10shared_ptrINS_6TensorEEEC2ERKNS_6StatusE(ptr noundef nonnull align 8 dereferenceable(24) %0, ptr noundef nonnull align 8 dereferenceable(8) %11) #8
  call void @_ZN5arrow6StatusD2Ev(ptr noundef nonnull align 8 dereferenceable(8) %11) #8
  call void @llvm.lifetime.end.p0(i64 8, ptr %11) #8
  br label %27

27:                                               ; preds = %26, %23, %20, %17, %14
  ret void
}