; Function Attrs: mustprogress uwtable
define void @_ZNK5arrow12SparseTensor8ToTensorEPNS_10MemoryPoolE(ptr dead_on_unwind noalias writable sret(%"class.arrow::Result.49") align 8 %0, ptr noundef nonnull align 8 dereferenceable(104) %1, ptr noundef %2) local_unnamed_addr #0 align 2 {
  %4 = alloca %"class.arrow::Status", align 8
  %5 = getelementptr inbounds nuw i8, ptr %1, i64 64
  %6 = load ptr, ptr %5, align 8, !tbaa !308
  %7 = getelementptr inbounds nuw i8, ptr %6, i64 8
  %8 = load i32, ptr %7, align 8, !tbaa !204
  switch i32 %8, label %13 [
    i32 0, label %9
    i32 1, label %10
    i32 2, label %11
    i32 3, label %12
  ]

9:                                                ; preds = %3
  tail call void @_ZN5arrow8internal29MakeTensorFromSparseCOOTensorEPNS_10MemoryPoolEPKNS_16SparseTensorImplINS_14SparseCOOIndexEEE(ptr dead_on_unwind writable sret(%"class.arrow::Result.49") align 8 %0, ptr noundef %2, ptr noundef nonnull %1)
  br label %20

10:                                               ; preds = %3
  tail call void @_ZN5arrow8internal29MakeTensorFromSparseCSRMatrixEPNS_10MemoryPoolEPKNS_16SparseTensorImplINS_14SparseCSRIndexEEE(ptr dead_on_unwind writable sret(%"class.arrow::Result.49") align 8 %0, ptr noundef %2, ptr noundef nonnull %1)
  br label %20

11:                                               ; preds = %3
  tail call void @_ZN5arrow8internal29MakeTensorFromSparseCSCMatrixEPNS_10MemoryPoolEPKNS_16SparseTensorImplINS_14SparseCSCIndexEEE(ptr dead_on_unwind writable sret(%"class.arrow::Result.49") align 8 %0, ptr noundef %2, ptr noundef nonnull %1)
  br label %20

12:                                               ; preds = %3
  tail call void @_ZN5arrow8internal29MakeTensorFromSparseCSFTensorEPNS_10MemoryPoolEPKNS_16SparseTensorImplINS_14SparseCSFIndexEEE(ptr dead_on_unwind writable sret(%"class.arrow::Result.49") align 8 %0, ptr noundef %2, ptr noundef nonnull %1)
  br label %20

13:                                               ; preds = %3
  call void @llvm.lifetime.start.p0(i64 8, ptr nonnull %4) #24
  call void @_ZN5arrow6Status8FromArgsIJRA36_KcEEES0_NS_10StatusCodeEDpOT_(ptr dead_on_unwind nonnull writable sret(%"class.arrow::Status") align 8 %4, i8 noundef signext 10, ptr noundef nonnull align 1 dereferenceable(36) @.str.23)
  call void @_ZN5arrow6ResultISt10shared_ptrINS_6TensorEEEC2ERKNS_6StatusE(ptr noundef nonnull align 8 dereferenceable(24) %0, ptr noundef nonnull align 8 dereferenceable(8) %4) #24
  %14 = load ptr, ptr %4, align 8, !tbaa !12
  %.not.i = icmp eq ptr %14, null
  br i1 %.not.i, label %_ZN5arrow6StatusD2Ev.exit, label %15, !prof !118

15:                                               ; preds = %13
  %16 = getelementptr inbounds nuw i8, ptr %14, i64 1
  %17 = load i8, ptr %16, align 1, !tbaa !120, !range !130, !noundef !131
  %18 = trunc nuw i8 %17 to i1
  br i1 %18, label %_ZN5arrow6StatusD2Ev.exit, label %19

19:                                               ; preds = %15
  call void @_ZN5arrow6Status11DeleteStateEv(ptr noundef nonnull align 8 dereferenceable(8) %4) #24
  br label %_ZN5arrow6StatusD2Ev.exit

_ZN5arrow6StatusD2Ev.exit:                        ; preds = %13, %15, %19
  call void @llvm.lifetime.end.p0(i64 8, ptr nonnull %4) #24
  br label %20

20:                                               ; preds = %_ZN5arrow6StatusD2Ev.exit, %12, %11, %10, %9
  ret void
}